target datalayout = "e-m:e-p270:32:32-p271:32:32-p272:64:64-i64:64-i128:128-f80:128-n8:16:32:64-S128"
target triple = "x86_64-pc-linux-gnu"

%struct.lexbor_avl = type { ptr, ptr }
%struct.lexbor_avl_node = type { i64, i16, ptr, ptr, ptr, ptr }

; Function Attrs: nounwind uwtable
define internal ptr @lexbor_avl_find_min(ptr noundef %0) #0 {
  %2 = alloca ptr, align 8
  %3 = alloca ptr, align 8
  store ptr %0, ptr %3, align 8
  %4 = load ptr, ptr %3, align 8
  %5 = icmp eq ptr %4, null
  br i1 %5, label %6, label %7

6:                                                ; preds = %1
  store ptr null, ptr %2, align 8
  br label %19

7:                                                ; preds = %1
  br label %8

8:                                                ; preds = %13, %7
  %9 = load ptr, ptr %3, align 8
  %10 = getelementptr inbounds %struct.lexbor_avl_node, ptr %9, i32 0, i32 4
  %11 = load ptr, ptr %10, align 8
  %12 = icmp ne ptr %11, null
  br i1 %12, label %13, label %17

13:                                               ; preds = %8
  %14 = load ptr, ptr %3, align 8
  %15 = getelementptr inbounds %struct.lexbor_avl_node, ptr %14, i32 0, i32 4
  %16 = load ptr, ptr %15, align 8
  store ptr %16, ptr %3, align 8
  br label %8

17:                                               ; preds = %8
  %18 = load ptr, ptr %3, align 8
  store ptr %18, ptr %2, align 8
  br label %19

19:                                               ; preds = %17, %6
  %20 = load ptr, ptr %2, align 8
  ret ptr %20
}

; Function Attrs: nounwind uwtable
define hidden ptr @lexbor_avl_remove(ptr noundef %0, ptr noundef %1, i64 noundef %2) #0 {
  %4 = alloca ptr, align 8
  %5 = alloca ptr, align 8
  %6 = alloca ptr, align 8
  %7 = alloca i64, align 8
  %8 = alloca ptr, align 8
  %9 = alloca ptr, align 8
  store ptr %0, ptr %5, align 8
  store ptr %1, ptr %6, align 8
  store i64 %2, ptr %7, align 8
  %10 = load ptr, ptr %6, align 8
  %11 = load ptr, ptr %10, align 8
  store ptr %11, ptr %9, align 8
  br label %12

12:                                               ; preds = %57, %3
  %13 = load ptr, ptr %9, align 8
  %14 = icmp ne ptr %13, null
  br i1 %14, label %15, label %58

15:                                               ; preds = %12
  %16 = load i64, ptr %7, align 8
  %17 = load ptr, ptr %9, align 8
  %18 = getelementptr inbounds %struct.lexbor_avl_node, ptr %17, i32 0, i32 0
  %19 = load i64, ptr %18, align 8
  %20 = icmp eq i64 %16, %19
  br i1 %20, label %21, label %42

21:                                               ; preds = %15
  %22 = load ptr, ptr %9, align 8
  %23 = getelementptr inbounds %struct.lexbor_avl_node, ptr %22, i32 0, i32 3
  %24 = load ptr, ptr %23, align 8
  %25 = call ptr @lexbor_avl_find_min(ptr noundef %24)
  %26 = load ptr, ptr %5, align 8
  %27 = getelementptr inbounds %struct.lexbor_avl, ptr %26, i32 0, i32 1
  store ptr %25, ptr %27, align 8
  %28 = load ptr, ptr %9, align 8
  %29 = load ptr, ptr %5, align 8
  %30 = getelementptr inbounds %struct.lexbor_avl, ptr %29, i32 0, i32 1
  %31 = load ptr, ptr %30, align 8
  %32 = load ptr, ptr %6, align 8
  call void @lexbor_avl_rotate_for_delete(ptr noundef %28, ptr noundef %31, ptr noundef %32)
  %33 = load ptr, ptr %9, align 8
  %34 = getelementptr inbounds %struct.lexbor_avl_node, ptr %33, i32 0, i32 2
  %35 = load ptr, ptr %34, align 8
  store ptr %35, ptr %8, align 8
  %36 = load ptr, ptr %5, align 8
  %37 = getelementptr inbounds %struct.lexbor_avl, ptr %36, i32 0, i32 0
  %38 = load ptr, ptr %37, align 8
  %39 = load ptr, ptr %9, align 8
  %40 = call ptr @lexbor_dobject_free(ptr noundef %38, ptr noundef %39)
  %41 = load ptr, ptr %8, align 8
  store ptr %41, ptr %4, align 8
  br label %59

42:                                               ; preds = %15
  %43 = load i64, ptr %7, align 8
  %44 = load ptr, ptr %9, align 8
  %45 = getelementptr inbounds %struct.lexbor_avl_node, ptr %44, i32 0, i32 0
  %46 = load i64, ptr %45, align 8
  %47 = icmp ult i64 %43, %46
  br i1 %47, label %48, label %52

48:                                               ; preds = %42
  %49 = load ptr, ptr %9, align 8
  %50 = getelementptr inbounds %struct.lexbor_avl_node, ptr %49, i32 0, i32 3
  %51 = load ptr, ptr %50, align 8
  store ptr %51, ptr %9, align 8
  br label %56

52:                                               ; preds = %42
  %53 = load ptr, ptr %9, align 8
  %54 = getelementptr inbounds %struct.lexbor_avl_node, ptr %53, i32 0, i32 4
  %55 = load ptr, ptr %54, align 8
  store ptr %55, ptr %9, align 8
  br label %56

56:                                               ; preds = %52, %48
  br label %57

57:                                               ; preds = %56
  br label %12

58:                                               ; preds = %12
  store ptr null, ptr %4, align 8
  br label %59

59:                                               ; preds = %58, %21
  %60 = load ptr, ptr %4, align 8
  ret ptr %60
}