; Function Attrs: nounwind uwtable
define hidden ptr @lexbor_avl_remove(ptr nocapture noundef %0, ptr nocapture noundef %1, i64 noundef %2) local_unnamed_addr #0 {
  %.021 = load ptr, ptr %1, align 8
  %.not22 = icmp eq ptr %.021, null
  br i1 %.not22, label %.loopexit, label %.lr.ph

.lr.ph:                                           ; preds = %3, %17
  %.023 = phi ptr [ %.0, %17 ], [ %.021, %3 ]
  %4 = load i64, ptr %.023, align 8
  %5 = icmp eq i64 %4, %2
  br i1 %5, label %6, label %17

6:                                                ; preds = %.lr.ph
  %7 = getelementptr inbounds i8, ptr %.023, i64 24
  %8 = load ptr, ptr %7, align 8
  %9 = icmp eq ptr %8, null
  br i1 %9, label %lexbor_avl_find_min.exit, label %.preheader.i

.preheader.i:                                     ; preds = %6, %.preheader.i
  %.0.i = phi ptr [ %11, %.preheader.i ], [ %8, %6 ]
  %10 = getelementptr inbounds i8, ptr %.0.i, i64 32
  %11 = load ptr, ptr %10, align 8
  %.not.i = icmp eq ptr %11, null
  br i1 %.not.i, label %lexbor_avl_find_min.exit, label %.preheader.i

lexbor_avl_find_min.exit:                         ; preds = %.preheader.i, %6
  %.05.i = phi ptr [ null, %6 ], [ %.0.i, %.preheader.i ]
  %12 = getelementptr inbounds i8, ptr %0, i64 8
  store ptr %.05.i, ptr %12, align 8
  tail call fastcc void @lexbor_avl_rotate_for_delete(ptr noundef nonnull %.023, ptr noundef %.05.i, ptr noundef nonnull %1)
  %13 = getelementptr inbounds i8, ptr %.023, i64 16
  %14 = load ptr, ptr %13, align 8
  %15 = load ptr, ptr %0, align 8
  %16 = tail call ptr @lexbor_dobject_free(ptr noundef %15, ptr noundef nonnull %.023) #8
  br label %.loopexit

17:                                               ; preds = %.lr.ph
  %18 = icmp ugt i64 %4, %2
  %.1.in.v = select i1 %18, i64 24, i64 32
  %.1.in = getelementptr inbounds i8, ptr %.023, i64 %.1.in.v
  %.0 = load ptr, ptr %.1.in, align 8
  %.not = icmp eq ptr %.0, null
  br i1 %.not, label %.loopexit, label %.lr.ph

.loopexit:                                        ; preds = %17, %3, %lexbor_avl_find_min.exit
  %.017 = phi ptr [ %14, %lexbor_avl_find_min.exit ], [ null, %3 ], [ null, %17 ]
  ret ptr %.017
}